target datalayout = "e-m:e-p270:32:32-p271:32:32-p272:64:64-i64:64-i128:128-f80:128-n8:16:32:64-S128"
target triple = "x86_64-pc-linux-gnu"

%struct.redisServer = type { i32, i64, ptr, ptr, ptr, i32, i32, i32, i32, i32, ptr, ptr, ptr, ptr, ptr, i32, i32, i32, i32, i64, i32, i32, i32, i32, ptr, i32, i32, [41 x i8], i32, i64, i32, i32, i32, ptr, ptr, i32, i32, i64, ptr, ptr, ptr, ptr, [2 x i32], i32, i32, i32, i32, i32, i32, [16 x ptr], i32, ptr, ptr, i32, [8 x %struct.connListener], i32, %struct.connListener, ptr, ptr, ptr, ptr, ptr, ptr, ptr, ptr, ptr, ptr, i32, ptr, i32, ptr, [3 x %struct.pause_event], [256 x i8], ptr, i64, i32, i32, [128 x i32], i32, i32, i64, i32, i32, i32, i32, i32, i64, i64, i64, i64, i64, i64, i64, i64, i64, i64, double, i64, i64, i64, i64, i64, i64, i64, i64, i64, i64, i64, i64, i64, i64, i64, i64, i64, i64, i64, i64, i64, double, i64, i64, i64, i64, i64, ptr, i64, i64, i64, %struct.malloc_stats, i64, i64, i64, i64, i64, i64, i64, i64, i64, i64, i64, i64, double, [4 x i64], i64, i64, i64, i64, [128 x i64], [128 x i64], i64, i64, [7 x %struct.anon], i64, i64, i64, i64, i64, i64, [4 x %struct.durationStats], i32, i32, i32, i32, i32, i32, i32, i32, i32, i32, i32, i32, i64, i32, i32, i32, i32, i64, i64, i32, i32, i32, i32, i32, ptr, [3 x %struct.clientBufferLimitsConfig], i32, i32, i32, ptr, i32, i32, i32, i32, i32, i32, ptr, ptr, i32, i32, i64, i64, i64, i64, i64, i32, i32, ptr, i32, i32, i64, i64, i64, i64, i64, i32, i32, i64, i32, i32, i32, i32, i32, i32, i32, i32, ptr, i32, i64, i64, i64, i64, i32, ptr, i32, ptr, i32, i32, i32, i64, i64, i64, i64, i32, i32, i32, i32, i32, i32, ptr, i32, i32, ptr, i32, i32, i32, [2 x i32], i32, %struct.redisOpArray, i32, ptr, i32, ptr, i32, i32, i32, i32, i32, i32, i32, [41 x i8], [41 x i8], i64, i64, i64, i64, i32, i32, ptr, i64, i64, %struct.replDataBuf, i64, i64, i32, i32, i32, i32, i32, i32, i32, i32, i32, i64, ptr, i64, ptr, ptr, ptr, i32, i32, ptr, ptr, i32, i32, i32, i64, i64, i64, i64, ptr, ptr, i32, ptr, i64, i32, i32, i32, i64, i32, i32, i32, i32, ptr, i32, i32, [41 x i8], i64, i32, ptr, i32, i32, i64, i64, i32, i32, i32, i32, i32, i64, [3 x i32], i32, i32, i32, [10 x i32], ptr, ptr, i32, i64, ptr, ptr, i32, i32, i32, i32, i64, i64, i64, i64, i64, i64, i64, i64, i64, i64, i32, i32, i64, i64, i32, i64, i64, i64, i64, i64, ptr, ptr, i32, ptr, i32, i32, i32, i32, i64, i64, ptr, ptr, i32, i32, i32, i32, i32, ptr, ptr, ptr, i32, i32, i32, i32, i32, i32, i32, i64, i32, i32, i64, i32, i32, i32, i32, i32, i32, i32, i64, ptr, ptr, i64, ptr, i32, %struct.aclInfo, i32, i64, i32, i32, i32, %struct.redisTLSContextConfig, ptr, ptr, ptr, ptr, ptr, i64, i32, ptr, i32, i32, i32, i64, i32, ptr }
%struct.connListener = type { [16 x i32], i32, ptr, i32, i32, ptr, ptr }
%struct.pause_event = type { i32, i64 }
%struct.malloc_stats = type { i64, i64, i64, i64, i64, i64, i64, i64, i64, i64, i64 }
%struct.anon = type { i64, i64, [16 x i64], i32 }
%struct.durationStats = type { i64, i64, i64 }
%struct.clientBufferLimitsConfig = type { i64, i64, i64 }
%struct.redisOpArray = type { ptr, i32, i32 }
%struct.replDataBuf = type { ptr, i64, i64, i64, i64 }
%struct.aclInfo = type { i64, i64, i64, i64 }
%struct.redisTLSContextConfig = type { ptr, ptr, ptr, ptr, ptr, ptr, ptr, ptr, ptr, ptr, ptr, ptr, i32, i32, i32, i32 }
%struct.zskiplist = type { ptr, ptr, i64, i32 }
%struct.redisObject = type { i32, i32, ptr }
%struct.zset = type { ptr, ptr }

@.str.1 = private unnamed_addr constant [9 x i8] c"t_zset.c\00", align 1
@.str.9 = private unnamed_addr constant [28 x i8] c"Unknown sorted set encoding\00", align 1
@server = external global %struct.redisServer, align 8

; Function Attrs: nounwind uwtable
define dso_local i32 @zzlLength(ptr noundef %0) #0 {
  %2 = alloca ptr, align 8
  store ptr %0, ptr %2, align 8, !tbaa !11
  %3 = load ptr, ptr %2, align 8, !tbaa !11
  %4 = call i64 @lpLength(ptr noundef %3)
  %5 = udiv i64 %4, 2
  %6 = trunc i64 %5 to i32
  ret i32 %6
}

; Function Attrs: nounwind uwtable
define dso_local i64 @zsetLength(ptr noundef %0) #0 {
  %2 = alloca ptr, align 8
  %3 = alloca i64, align 8
  store ptr %0, ptr %2, align 8, !tbaa !78
  call void @llvm.lifetime.start.p0(i64 8, ptr %3) #12
  store i64 0, ptr %3, align 8, !tbaa !31
  %4 = load ptr, ptr %2, align 8, !tbaa !78
  %5 = load i32, ptr %4, align 8
  %6 = lshr i32 %5, 4
  %7 = and i32 %6, 15
  %8 = icmp eq i32 %7, 11
  br i1 %8, label %9, label %15

9:                                                ; preds = %1
  %10 = load ptr, ptr %2, align 8, !tbaa !78
  %11 = getelementptr inbounds nuw %struct.redisObject, ptr %10, i32 0, i32 2
  %12 = load ptr, ptr %11, align 8, !tbaa !84
  %13 = call i32 @zzlLength(ptr noundef %12)
  %14 = zext i32 %13 to i64
  store i64 %14, ptr %3, align 8, !tbaa !31
  br label %31

15:                                               ; preds = %1
  %16 = load ptr, ptr %2, align 8, !tbaa !78
  %17 = load i32, ptr %16, align 8
  %18 = lshr i32 %17, 4
  %19 = and i32 %18, 15
  %20 = icmp eq i32 %19, 7
  br i1 %20, label %21, label %29

21:                                               ; preds = %15
  %22 = load ptr, ptr %2, align 8, !tbaa !78
  %23 = getelementptr inbounds nuw %struct.redisObject, ptr %22, i32 0, i32 2
  %24 = load ptr, ptr %23, align 8, !tbaa !84
  %25 = getelementptr inbounds nuw %struct.zset, ptr %24, i32 0, i32 1
  %26 = load ptr, ptr %25, align 8, !tbaa !112
  %27 = getelementptr inbounds nuw %struct.zskiplist, ptr %26, i32 0, i32 2
  %28 = load i64, ptr %27, align 8, !tbaa !21
  store i64 %28, ptr %3, align 8, !tbaa !31
  br label %30

29:                                               ; preds = %15
  call void (ptr, i32, ptr, ...) @_serverPanic(ptr noundef @.str.1, i32 noundef 1210, ptr noundef @.str.9)
  call void @abort() #14
  unreachable

30:                                               ; preds = %21
  br label %31

31:                                               ; preds = %30, %9
  %32 = load i64, ptr %3, align 8, !tbaa !31
  call void @llvm.lifetime.end.p0(i64 8, ptr %3) #12
  ret i64 %32
}

; Function Attrs: nounwind uwtable
define dso_local void @zsetConvert(ptr noundef %0, i32 noundef %1) #0 {
  %3 = alloca ptr, align 8
  %4 = alloca i32, align 4
  store ptr %0, ptr %3, align 8, !tbaa !78
  store i32 %1, ptr %4, align 4, !tbaa !5
  %5 = load ptr, ptr %3, align 8, !tbaa !78
  %6 = load i32, ptr %4, align 4, !tbaa !5
  %7 = load ptr, ptr %3, align 8, !tbaa !78
  %8 = call i64 @zsetLength(ptr noundef %7)
  call void @zsetConvertAndExpand(ptr noundef %5, i32 noundef %6, i64 noundef %8)
  ret void
}

; Function Attrs: nounwind uwtable
define dso_local void @zsetConvertToListpackIfNeeded(ptr noundef %0, i64 noundef %1, i64 noundef %2) #0 {
  %4 = alloca ptr, align 8
  %5 = alloca i64, align 8
  %6 = alloca i64, align 8
  %7 = alloca ptr, align 8
  store ptr %0, ptr %4, align 8, !tbaa !78
  store i64 %1, ptr %5, align 8, !tbaa !31
  store i64 %2, ptr %6, align 8, !tbaa !31
  %8 = load ptr, ptr %4, align 8, !tbaa !78
  %9 = load i32, ptr %8, align 8
  %10 = lshr i32 %9, 4
  %11 = and i32 %10, 15
  %12 = icmp eq i32 %11, 11
  br i1 %12, label %13, label %14

13:                                               ; preds = %3
  br label %36

14:                                               ; preds = %3
  call void @llvm.lifetime.start.p0(i64 8, ptr %7) #12
  %15 = load ptr, ptr %4, align 8, !tbaa !78
  %16 = getelementptr inbounds nuw %struct.redisObject, ptr %15, i32 0, i32 2
  %17 = load ptr, ptr %16, align 8, !tbaa !84
  store ptr %17, ptr %7, align 8, !tbaa !137
  %18 = load ptr, ptr %7, align 8, !tbaa !137
  %19 = getelementptr inbounds nuw %struct.zset, ptr %18, i32 0, i32 1
  %20 = load ptr, ptr %19, align 8, !tbaa !112
  %21 = getelementptr inbounds nuw %struct.zskiplist, ptr %20, i32 0, i32 2
  %22 = load i64, ptr %21, align 8, !tbaa !21
  %23 = load i64, ptr getelementptr inbounds nuw (%struct.redisServer, ptr @server, i32 0, i32 359), align 8, !tbaa !114
  %24 = icmp ule i64 %22, %23
  br i1 %24, label %25, label %35

25:                                               ; preds = %14
  %26 = load i64, ptr %5, align 8, !tbaa !31
  %27 = load i64, ptr getelementptr inbounds nuw (%struct.redisServer, ptr @server, i32 0, i32 360), align 8, !tbaa !136
  %28 = icmp ule i64 %26, %27
  br i1 %28, label %29, label %35

29:                                               ; preds = %25
  %30 = load i64, ptr %6, align 8, !tbaa !31
  %31 = call i32 @lpSafeToAdd(ptr noundef null, i64 noundef %30)
  %32 = icmp ne i32 %31, 0
  br i1 %32, label %33, label %35

33:                                               ; preds = %29
  %34 = load ptr, ptr %4, align 8, !tbaa !78
  call void @zsetConvert(ptr noundef %34, i32 noundef 11)
  br label %35

35:                                               ; preds = %33, %29, %25, %14
  call void @llvm.lifetime.end.p0(i64 8, ptr %7) #12
  br label %36

36:                                               ; preds = %35, %13
  ret void
}