; Function Attrs: nounwind uwtable
define dso_local void @zsetConvertToListpackIfNeeded(ptr noundef %0, i64 noundef %1, i64 noundef %2) local_unnamed_addr #0 {
  %4 = load i32, ptr %0, align 8
  %5 = and i32 %4, 240
  %6 = icmp eq i32 %5, 176
  br i1 %6, label %34, label %7

7:                                                ; preds = %3
  %8 = getelementptr inbounds nuw i8, ptr %0, i64 8
  %9 = load ptr, ptr %8, align 8, !tbaa !75
  %10 = getelementptr inbounds nuw i8, ptr %9, i64 8
  %11 = load ptr, ptr %10, align 8, !tbaa !97
  %12 = getelementptr inbounds nuw i8, ptr %11, i64 16
  %13 = load i64, ptr %12, align 8, !tbaa !17
  %14 = load i64, ptr getelementptr inbounds nuw (i8, ptr @server, i64 7736), align 8, !tbaa !101
  %.not = icmp ugt i64 %13, %14
  %15 = load i64, ptr getelementptr inbounds nuw (i8, ptr @server, i64 7744), align 8
  %.not5 = icmp ugt i64 %1, %15
  %or.cond = select i1 %.not, i1 true, i1 %.not5
  br i1 %or.cond, label %34, label %16

16:                                               ; preds = %7
  %17 = tail call i32 @lpSafeToAdd(ptr noundef null, i64 noundef %2) #18
  %.not6 = icmp eq i32 %17, 0
  br i1 %.not6, label %34, label %18

18:                                               ; preds = %16
  %19 = load i32, ptr %0, align 8
  %20 = lshr i32 %19, 4
  %21 = and i32 %20, 15
  switch i32 %21, label %33 [
    i32 11, label %22
    i32 7, label %27
  ]

22:                                               ; preds = %18
  %23 = load ptr, ptr %8, align 8, !tbaa !75
  %24 = tail call i64 @lpLength(ptr noundef %23) #18
  %25 = lshr i64 %24, 1
  %26 = and i64 %25, 4294967295
  br label %zsetConvert.exit

27:                                               ; preds = %18
  %28 = load ptr, ptr %8, align 8, !tbaa !75
  %29 = getelementptr inbounds nuw i8, ptr %28, i64 8
  %30 = load ptr, ptr %29, align 8, !tbaa !97
  %31 = getelementptr inbounds nuw i8, ptr %30, i64 16
  %32 = load i64, ptr %31, align 8, !tbaa !17
  br label %zsetConvert.exit

33:                                               ; preds = %18
  tail call void (ptr, i32, ptr, ...) @_serverPanic(ptr noundef nonnull @.str.1, i32 noundef 1210, ptr noundef nonnull @.str.9) #18
  tail call void @abort() #19
  unreachable

zsetConvert.exit:                                 ; preds = %22, %27
  %.0.i.i = phi i64 [ %26, %22 ], [ %32, %27 ]
  tail call void @zsetConvertAndExpand(ptr noundef nonnull %0, i32 noundef 11, i64 noundef %.0.i.i)
  br label %34

34:                                               ; preds = %7, %16, %zsetConvert.exit, %3
  ret void
}